target datalayout = "e-m:e-p270:32:32-p271:32:32-p272:64:64-i64:64-i128:128-f80:128-n8:16:32:64-S128"
target triple = "x86_64-pc-linux-gnu"

; Function Attrs: nounwind uwtable
define internal void @lumRangeToJpeg_c(ptr noundef %0, i32 noundef %1, i32 noundef %2, i64 noundef %3) #0 {
  %5 = alloca ptr, align 8
  %6 = alloca i32, align 4
  %7 = alloca i32, align 4
  %8 = alloca i64, align 8
  %9 = alloca i16, align 2
  %10 = alloca i32, align 4
  %11 = alloca i32, align 4
  %12 = alloca i32, align 4
  store ptr %0, ptr %5, align 8, !tbaa !104
  store i32 %1, ptr %6, align 4, !tbaa !14
  store i32 %2, ptr %7, align 4, !tbaa !14
  store i64 %3, ptr %8, align 8, !tbaa !105
  call void @llvm.lifetime.start.p0(i64 2, ptr %9) #11
  %13 = load i32, ptr %7, align 4, !tbaa !14
  %14 = trunc i32 %13 to i16
  store i16 %14, ptr %9, align 2, !tbaa !102
  call void @llvm.lifetime.start.p0(i64 4, ptr %10) #11
  %15 = load i64, ptr %8, align 8, !tbaa !105
  %16 = trunc i64 %15 to i32
  store i32 %16, ptr %10, align 4, !tbaa !14
  call void @llvm.lifetime.start.p0(i64 4, ptr %11) #11
  store i32 0, ptr %11, align 4, !tbaa !14
  br label %17

17:                                               ; preds = %46, %4
  %18 = load i32, ptr %11, align 4, !tbaa !14
  %19 = load i32, ptr %6, align 4, !tbaa !14
  %20 = icmp slt i32 %18, %19
  br i1 %20, label %21, label %49

21:                                               ; preds = %17
  call void @llvm.lifetime.start.p0(i64 4, ptr %12) #11
  %22 = load ptr, ptr %5, align 8, !tbaa !104
  %23 = load i32, ptr %11, align 4, !tbaa !14
  %24 = sext i32 %23 to i64
  %25 = getelementptr inbounds i16, ptr %22, i64 %24
  %26 = load i16, ptr %25, align 2, !tbaa !102
  %27 = sext i16 %26 to i32
  %28 = load i16, ptr %9, align 2, !tbaa !102
  %29 = zext i16 %28 to i32
  %30 = mul nsw i32 %27, %29
  %31 = load i32, ptr %10, align 4, !tbaa !14
  %32 = add nsw i32 %30, %31
  %33 = ashr i32 %32, 14
  store i32 %33, ptr %12, align 4, !tbaa !14
  %34 = load i32, ptr %12, align 4, !tbaa !14
  %35 = icmp sgt i32 %34, 32767
  br i1 %35, label %36, label %37

36:                                               ; preds = %21
  br label %39

37:                                               ; preds = %21
  %38 = load i32, ptr %12, align 4, !tbaa !14
  br label %39

39:                                               ; preds = %37, %36
  %40 = phi i32 [ 32767, %36 ], [ %38, %37 ]
  %41 = trunc i32 %40 to i16
  %42 = load ptr, ptr %5, align 8, !tbaa !104
  %43 = load i32, ptr %11, align 4, !tbaa !14
  %44 = sext i32 %43 to i64
  %45 = getelementptr inbounds i16, ptr %42, i64 %44
  store i16 %41, ptr %45, align 2, !tbaa !102
  call void @llvm.lifetime.end.p0(i64 4, ptr %12) #11
  br label %46

46:                                               ; preds = %39
  %47 = load i32, ptr %11, align 4, !tbaa !14
  %48 = add nsw i32 %47, 1
  store i32 %48, ptr %11, align 4, !tbaa !14
  br label %17, !llvm.loop !108

49:                                               ; preds = %17
  call void @llvm.lifetime.end.p0(i64 4, ptr %11) #11
  call void @llvm.lifetime.end.p0(i64 4, ptr %10) #11
  call void @llvm.lifetime.end.p0(i64 2, ptr %9) #11
  ret void
}